target datalayout = "e-m:e-p270:32:32-p271:32:32-p272:64:64-i64:64-i128:128-f80:128-n8:16:32:64-S128"
target triple = "x86_64-pc-linux-gnu"

%struct.varattrib_1b = type { i8, [0 x i8] }
%struct.varattrib_1b_e = type { i8, i8, [0 x i8] }
%struct.anon = type { i32, [0 x i8] }
%struct.FunctionCallInfoBaseData = type { ptr, ptr, ptr, i32, i8, i16, [0 x %struct.NullableDatum] }
%struct.NullableDatum = type { i64, i8 }
%struct.pg_re_flags = type { i32, i8 }

@.str.3 = private unnamed_addr constant [9 x i8] c"regexp.c\00", align 1
@.str.4 = private unnamed_addr constant [42 x i8] c"invalid regular expression option: \22%.*s\22\00", align 1
@.str.5 = private unnamed_addr constant [109 x i8] c"If you meant to use regexp_replace() with a start parameter, cast the fourth argument to integer explicitly.\00", align 1
@__func__.textregexreplace = private unnamed_addr constant [17 x i8] c"textregexreplace\00", align 1

; Function Attrs: inlinehint nounwind uwtable
define internal i64 @PointerGetDatum(ptr noundef %0) #6 {
  %2 = alloca ptr, align 8
  store ptr %0, ptr %2, align 8
  %3 = load ptr, ptr %2, align 8
  %4 = ptrtoint ptr %3 to i64
  ret i64 %4
}

; Function Attrs: inlinehint nounwind uwtable
define internal ptr @DatumGetPointer(i64 noundef %0) #6 {
  %2 = alloca i64, align 8
  store i64 %0, ptr %2, align 8
  %3 = load i64, ptr %2, align 8
  %4 = inttoptr i64 %3 to ptr
  ret ptr %4
}

; Function Attrs: nounwind uwtable
define dso_local i64 @textregexreplace(ptr noundef %0) #0 {
  %2 = alloca ptr, align 8
  %3 = alloca ptr, align 8
  %4 = alloca ptr, align 8
  %5 = alloca ptr, align 8
  %6 = alloca ptr, align 8
  %7 = alloca %struct.pg_re_flags, align 4
  %8 = alloca ptr, align 8
  store ptr %0, ptr %2, align 8
  call void @llvm.lifetime.start.p0(i64 8, ptr %3) #8
  %9 = load ptr, ptr %2, align 8
  %10 = getelementptr inbounds nuw %struct.FunctionCallInfoBaseData, ptr %9, i32 0, i32 6
  %11 = getelementptr inbounds [0 x %struct.NullableDatum], ptr %10, i64 0, i64 0
  %12 = getelementptr inbounds nuw %struct.NullableDatum, ptr %11, i32 0, i32 0
  %13 = load i64, ptr %12, align 8
  %14 = call ptr @DatumGetPointer(i64 noundef %13)
  %15 = call ptr @pg_detoast_datum_packed(ptr noundef %14)
  store ptr %15, ptr %3, align 8
  call void @llvm.lifetime.start.p0(i64 8, ptr %4) #8
  %16 = load ptr, ptr %2, align 8
  %17 = getelementptr inbounds nuw %struct.FunctionCallInfoBaseData, ptr %16, i32 0, i32 6
  %18 = getelementptr inbounds [0 x %struct.NullableDatum], ptr %17, i64 0, i64 1
  %19 = getelementptr inbounds nuw %struct.NullableDatum, ptr %18, i32 0, i32 0
  %20 = load i64, ptr %19, align 8
  %21 = call ptr @DatumGetPointer(i64 noundef %20)
  %22 = call ptr @pg_detoast_datum_packed(ptr noundef %21)
  store ptr %22, ptr %4, align 8
  call void @llvm.lifetime.start.p0(i64 8, ptr %5) #8
  %23 = load ptr, ptr %2, align 8
  %24 = getelementptr inbounds nuw %struct.FunctionCallInfoBaseData, ptr %23, i32 0, i32 6
  %25 = getelementptr inbounds [0 x %struct.NullableDatum], ptr %24, i64 0, i64 2
  %26 = getelementptr inbounds nuw %struct.NullableDatum, ptr %25, i32 0, i32 0
  %27 = load i64, ptr %26, align 8
  %28 = call ptr @DatumGetPointer(i64 noundef %27)
  %29 = call ptr @pg_detoast_datum_packed(ptr noundef %28)
  store ptr %29, ptr %5, align 8
  call void @llvm.lifetime.start.p0(i64 8, ptr %6) #8
  %30 = load ptr, ptr %2, align 8
  %31 = getelementptr inbounds nuw %struct.FunctionCallInfoBaseData, ptr %30, i32 0, i32 6
  %32 = getelementptr inbounds [0 x %struct.NullableDatum], ptr %31, i64 0, i64 3
  %33 = getelementptr inbounds nuw %struct.NullableDatum, ptr %32, i32 0, i32 0
  %34 = load i64, ptr %33, align 8
  %35 = call ptr @DatumGetPointer(i64 noundef %34)
  %36 = call ptr @pg_detoast_datum_packed(ptr noundef %35)
  store ptr %36, ptr %6, align 8
  call void @llvm.lifetime.start.p0(i64 8, ptr %7) #8
  %37 = load ptr, ptr %6, align 8
  %38 = getelementptr inbounds nuw %struct.varattrib_1b, ptr %37, i32 0, i32 0
  %39 = load i8, ptr %38, align 1
  %40 = zext i8 %39 to i32
  %41 = icmp eq i32 %40, 1
  br i1 %41, label %42, label %70

42:                                               ; preds = %1
  %43 = load ptr, ptr %6, align 8
  %44 = getelementptr inbounds nuw %struct.varattrib_1b_e, ptr %43, i32 0, i32 1
  %45 = load i8, ptr %44, align 1
  %46 = zext i8 %45 to i32
  %47 = icmp eq i32 %46, 1
  br i1 %47, label %48, label %49

48:                                               ; preds = %42
  br label %66

49:                                               ; preds = %42
  %50 = load ptr, ptr %6, align 8
  %51 = getelementptr inbounds nuw %struct.varattrib_1b_e, ptr %50, i32 0, i32 1
  %52 = load i8, ptr %51, align 1
  %53 = zext i8 %52 to i32
  %54 = and i32 %53, -2
  %55 = icmp eq i32 %54, 2
  br i1 %55, label %56, label %57

56:                                               ; preds = %49
  br label %64

57:                                               ; preds = %49
  %58 = load ptr, ptr %6, align 8
  %59 = getelementptr inbounds nuw %struct.varattrib_1b_e, ptr %58, i32 0, i32 1
  %60 = load i8, ptr %59, align 1
  %61 = zext i8 %60 to i32
  %62 = icmp eq i32 %61, 18
  %63 = select i1 %62, i64 16, i64 0
  br label %64

64:                                               ; preds = %57, %56
  %65 = phi i64 [ 8, %56 ], [ %63, %57 ]
  br label %66

66:                                               ; preds = %64, %48
  %67 = phi i64 [ 8, %48 ], [ %65, %64 ]
  %68 = add i64 2, %67
  %69 = sub i64 %68, 2
  br label %96

70:                                               ; preds = %1
  %71 = load ptr, ptr %6, align 8
  %72 = getelementptr inbounds nuw %struct.varattrib_1b, ptr %71, i32 0, i32 0
  %73 = load i8, ptr %72, align 1
  %74 = zext i8 %73 to i32
  %75 = and i32 %74, 1
  %76 = icmp eq i32 %75, 1
  br i1 %76, label %77, label %86

77:                                               ; preds = %70
  %78 = load ptr, ptr %6, align 8
  %79 = getelementptr inbounds nuw %struct.varattrib_1b, ptr %78, i32 0, i32 0
  %80 = load i8, ptr %79, align 1
  %81 = zext i8 %80 to i32
  %82 = ashr i32 %81, 1
  %83 = and i32 %82, 127
  %84 = sext i32 %83 to i64
  %85 = sub i64 %84, 1
  br label %94

86:                                               ; preds = %70
  %87 = load ptr, ptr %6, align 8
  %88 = getelementptr inbounds nuw %struct.anon, ptr %87, i32 0, i32 0
  %89 = load i32, ptr %88, align 4
  %90 = lshr i32 %89, 2
  %91 = and i32 %90, 1073741823
  %92 = sub i32 %91, 4
  %93 = zext i32 %92 to i64
  br label %94

94:                                               ; preds = %86, %77
  %95 = phi i64 [ %85, %77 ], [ %93, %86 ]
  br label %96

96:                                               ; preds = %94, %66
  %97 = phi i64 [ %69, %66 ], [ %95, %94 ]
  %98 = icmp ugt i64 %97, 0
  br i1 %98, label %99, label %142

99:                                               ; preds = %96
  call void @llvm.lifetime.start.p0(i64 8, ptr %8) #8
  %100 = load ptr, ptr %6, align 8
  %101 = getelementptr inbounds nuw %struct.varattrib_1b, ptr %100, i32 0, i32 0
  %102 = load i8, ptr %101, align 1
  %103 = zext i8 %102 to i32
  %104 = and i32 %103, 1
  %105 = icmp eq i32 %104, 1
  br i1 %105, label %106, label %110

106:                                              ; preds = %99
  %107 = load ptr, ptr %6, align 8
  %108 = getelementptr inbounds nuw %struct.varattrib_1b, ptr %107, i32 0, i32 1
  %109 = getelementptr inbounds [0 x i8], ptr %108, i64 0, i64 0
  br label %114

110:                                              ; preds = %99
  %111 = load ptr, ptr %6, align 8
  %112 = getelementptr inbounds nuw %struct.anon, ptr %111, i32 0, i32 1
  %113 = getelementptr inbounds [0 x i8], ptr %112, i64 0, i64 0
  br label %114

114:                                              ; preds = %110, %106
  %115 = phi ptr [ %109, %106 ], [ %113, %110 ]
  store ptr %115, ptr %8, align 8
  %116 = load ptr, ptr %8, align 8
  %117 = load i8, ptr %116, align 1
  %118 = sext i8 %117 to i32
  %119 = icmp sge i32 %118, 48
  br i1 %119, label %120, label %141

120:                                              ; preds = %114
  %121 = load ptr, ptr %8, align 8
  %122 = load i8, ptr %121, align 1
  %123 = sext i8 %122 to i32
  %124 = icmp sle i32 %123, 57
  br i1 %124, label %125, label %141

125:                                              ; preds = %120
  br label %126

126:                                              ; preds = %125
  br i1 true, label %127, label %129

127:                                              ; preds = %126
  %128 = call zeroext i1 @errstart_cold(i32 noundef 21, ptr noundef null) #10
  br i1 %128, label %131, label %138

129:                                              ; preds = %126
  %130 = call zeroext i1 @errstart(i32 noundef 21, ptr noundef null)
  br i1 %130, label %131, label %138

131:                                              ; preds = %129, %127
  %132 = call i32 @errcode(i32 noundef 50856066)
  %133 = load ptr, ptr %8, align 8
  %134 = call i32 @pg_mblen(ptr noundef %133)
  %135 = load ptr, ptr %8, align 8
  %136 = call i32 (ptr, ...) @errmsg(ptr noundef @.str.4, i32 noundef %134, ptr noundef %135)
  %137 = call i32 (ptr, ...) @errhint(ptr noundef @.str.5)
  call void @errfinish(ptr noundef @.str.3, i32 noundef 682, ptr noundef @__func__.textregexreplace)
  br label %138

138:                                              ; preds = %131, %129, %127
  unreachable

139:                                              ; No predecessors!
  br label %140

140:                                              ; preds = %139
  br label %141

141:                                              ; preds = %140, %120, %114
  call void @llvm.lifetime.end.p0(i64 8, ptr %8) #8
  br label %142

142:                                              ; preds = %141, %96
  %143 = load ptr, ptr %6, align 8
  call void @parse_re_flags(ptr noundef %7, ptr noundef %143)
  %144 = load ptr, ptr %3, align 8
  %145 = load ptr, ptr %4, align 8
  %146 = load ptr, ptr %5, align 8
  %147 = getelementptr inbounds nuw %struct.pg_re_flags, ptr %7, i32 0, i32 0
  %148 = load i32, ptr %147, align 4
  %149 = load ptr, ptr %2, align 8
  %150 = getelementptr inbounds nuw %struct.FunctionCallInfoBaseData, ptr %149, i32 0, i32 3
  %151 = load i32, ptr %150, align 8
  %152 = getelementptr inbounds nuw %struct.pg_re_flags, ptr %7, i32 0, i32 1
  %153 = load i8, ptr %152, align 4, !range !6, !noundef !7
  %154 = trunc i8 %153 to i1
  %155 = select i1 %154, i32 0, i32 1
  %156 = call ptr @replace_text_regexp(ptr noundef %144, ptr noundef %145, ptr noundef %146, i32 noundef %148, i32 noundef %151, i32 noundef 0, i32 noundef %155)
  %157 = call i64 @PointerGetDatum(ptr noundef %156)
  call void @llvm.lifetime.end.p0(i64 8, ptr %7) #8
  call void @llvm.lifetime.end.p0(i64 8, ptr %6) #8
  call void @llvm.lifetime.end.p0(i64 8, ptr %5) #8
  call void @llvm.lifetime.end.p0(i64 8, ptr %4) #8
  call void @llvm.lifetime.end.p0(i64 8, ptr %3) #8
  ret i64 %157
}