; Function Attrs: nounwind uwtable
define dso_local i64 @textregexreplace(ptr noundef readonly captures(none) %0) local_unnamed_addr #0 {
  %2 = alloca %struct.pg_re_flags, align 4
  %3 = getelementptr inbounds nuw i8, ptr %0, i64 32
  %4 = load i64, ptr %3, align 8
  %5 = inttoptr i64 %4 to ptr
  %6 = tail call ptr @pg_detoast_datum_packed(ptr noundef %5) #9
  %7 = getelementptr inbounds nuw i8, ptr %0, i64 48
  %8 = load i64, ptr %7, align 8
  %9 = inttoptr i64 %8 to ptr
  %10 = tail call ptr @pg_detoast_datum_packed(ptr noundef %9) #9
  %11 = getelementptr inbounds nuw i8, ptr %0, i64 64
  %12 = load i64, ptr %11, align 8
  %13 = inttoptr i64 %12 to ptr
  %14 = tail call ptr @pg_detoast_datum_packed(ptr noundef %13) #9
  %15 = getelementptr inbounds nuw i8, ptr %0, i64 80
  %16 = load i64, ptr %15, align 8
  %17 = inttoptr i64 %16 to ptr
  %18 = tail call ptr @pg_detoast_datum_packed(ptr noundef %17) #9
  call void @llvm.lifetime.start.p0(i64 8, ptr nonnull %2) #9
  %19 = load i8, ptr %18, align 1
  %20 = zext i8 %19 to i32
  %21 = icmp eq i8 %19, 1
  br i1 %21, label %22, label %27

22:                                               ; preds = %1
  %23 = getelementptr inbounds nuw i8, ptr %18, i64 1
  %24 = load i8, ptr %23, align 1
  %25 = icmp eq i8 %24, 18
  %26 = select i1 %25, i64 16, i64 0
  %.off = add i8 %24, -1
  %switch = icmp ult i8 %.off, 3
  br i1 %switch, label %.thread, label %38

27:                                               ; preds = %1
  %28 = and i32 %20, 1
  %.not = icmp eq i32 %28, 0
  br i1 %.not, label %33, label %29

29:                                               ; preds = %27
  %30 = lshr i32 %20, 1
  %31 = zext nneg i32 %30 to i64
  %32 = add nsw i64 %31, -1
  br label %38

33:                                               ; preds = %27
  %34 = load i32, ptr %18, align 4
  %35 = lshr i32 %34, 2
  %36 = add nsw i32 %35, -4
  %37 = zext i32 %36 to i64
  br label %38

38:                                               ; preds = %22, %29, %33
  %39 = phi i64 [ %26, %22 ], [ %32, %29 ], [ %37, %33 ]
  %.not25 = icmp eq i64 %39, 0
  br i1 %.not25, label %50, label %.thread

.thread:                                          ; preds = %22, %38
  %40 = and i8 %19, 1
  %.not26 = icmp eq i8 %40, 0
  %.v = select i1 %.not26, i64 4, i64 1
  %41 = getelementptr inbounds nuw i8, ptr %18, i64 %.v
  %42 = load i8, ptr %41, align 1
  %43 = add i8 %42, -48
  %or.cond28 = icmp ult i8 %43, 10
  br i1 %or.cond28, label %44, label %50

44:                                               ; preds = %.thread
  %45 = tail call zeroext i1 @errstart_cold(i32 noundef 21, ptr noundef null) #10
  tail call void @llvm.assume(i1 %45)
  %46 = tail call i32 @errcode(i32 noundef 50856066) #9
  %47 = tail call i32 @pg_mblen(ptr noundef nonnull %41) #9
  %48 = tail call i32 (ptr, ...) @errmsg(ptr noundef nonnull @.str.4, i32 noundef %47, ptr noundef nonnull %41) #9
  %49 = tail call i32 (ptr, ...) @errhint(ptr noundef nonnull @.str.5) #9
  tail call void @errfinish(ptr noundef nonnull @.str.3, i32 noundef 682, ptr noundef nonnull @__func__.textregexreplace) #9
  unreachable

50:                                               ; preds = %.thread, %38
  call fastcc void @parse_re_flags(ptr noundef %2, ptr noundef nonnull %18)
  %51 = load i32, ptr %2, align 4
  %52 = getelementptr inbounds nuw i8, ptr %0, i64 24
  %53 = load i32, ptr %52, align 8
  %54 = getelementptr inbounds nuw i8, ptr %2, i64 4
  %55 = load i8, ptr %54, align 4, !range !7, !noundef !8
  %56 = xor i8 %55, 1
  %not. = zext nneg i8 %56 to i32
  %57 = tail call ptr @replace_text_regexp(ptr noundef %6, ptr noundef %10, ptr noundef %14, i32 noundef %51, i32 noundef %53, i32 noundef 0, i32 noundef %not.) #9
  %58 = ptrtoint ptr %57 to i64
  call void @llvm.lifetime.end.p0(i64 8, ptr nonnull %2) #9
  ret i64 %58
}